target datalayout = "e-m:e-p270:32:32-p271:32:32-p272:64:64-i64:64-i128:128-f80:128-n8:16:32:64-S128"
target triple = "x86_64-pc-linux-gnu"

%struct.AVProbeData = type { ptr, ptr, i32, ptr }
%struct.AVRational = type { i32, i32 }
%struct.AVFormatContext = type { ptr, ptr, ptr, ptr, ptr, i32, i32, ptr, i32, ptr, i32, ptr, ptr, i64, i64, i64, i32, i32, i32, i64, i64, ptr, i32, i32, ptr, i32, i32, i32, i32, ptr, i64, i32, i32, %struct.AVIOInterruptCB, i32, i32, i32, i32, i64, i32, i32, i32, i32, i32, i32, i32, i32, i32, i32, i32, i32, i64, i32, i32, i32, i32, i32, ptr, ptr, ptr, ptr, i32, ptr, ptr, ptr, ptr, i32, ptr, ptr, i64, ptr, ptr, ptr, i64 }
%struct.AVIOInterruptCB = type { ptr, ptr }
%struct.AVStream = type { ptr, i32, i32, ptr, ptr, %struct.AVRational, i64, i64, i64, i32, i32, %struct.AVRational, ptr, %struct.AVRational, %struct.AVPacket, i32, %struct.AVRational, i32 }
%struct.AVPacket = type { ptr, i64, i64, ptr, i32, i32, i32, ptr, i32, i64, i64, ptr, ptr, %struct.AVRational }
%struct.AVCodecParameters = type { i32, i32, i32, ptr, i32, ptr, i32, i32, i64, i32, i32, i32, i32, i32, i32, %struct.AVRational, %struct.AVRational, i32, i32, i32, i32, i32, i32, i32, %struct.AVChannelLayout, i32, i32, i32, i32, i32, i32 }
%struct.AVChannelLayout = type { i32, i32, %union.anon, ptr }
%union.anon = type { i64 }
%struct.RPLContext = type { i32, i32, i32, i32 }
%struct.FFStream = type { %struct.AVStream, ptr, i32, ptr, i32, ptr, i32, %struct.anon, i32, i32, %struct.FFFrac, ptr, ptr, i32, i32, i64, i64, i32, i32, i32, i64, i64, i64, i32, i64, i64, i64, i32, i32, [17 x i64], [17 x i8], [17 x i64], i64, i8, i8, %struct.AVRational, %struct.AVProbeData, ptr, i64, i32, i32, i32, ptr, i32, i32, i64, i64, ptr, %struct.AVRational }
%struct.anon = type { ptr, i32 }
%struct.FFFrac = type { i64, i64, i64 }
%struct.AVIndexEntry = type { i64, i64, i32, i32 }

; Function Attrs: alwaysinline nounwind uwtable
define internal ptr @ffstream(ptr noundef %0) #7 {
  %2 = alloca ptr, align 8
  store ptr %0, ptr %2, align 8, !tbaa !34
  %3 = load ptr, ptr %2, align 8, !tbaa !34
  ret ptr %3
}

; Function Attrs: nounwind uwtable
define internal i32 @rpl_read_packet(ptr noundef %0, ptr noundef %1) #0 {
  %3 = alloca i32, align 4
  %4 = alloca ptr, align 8
  %5 = alloca ptr, align 8
  %6 = alloca ptr, align 8
  %7 = alloca ptr, align 8
  %8 = alloca ptr, align 8
  %9 = alloca ptr, align 8
  %10 = alloca ptr, align 8
  %11 = alloca i32, align 4
  %12 = alloca i32, align 4
  %13 = alloca i32, align 4
  store ptr %0, ptr %4, align 8, !tbaa !13
  store ptr %1, ptr %5, align 8, !tbaa !68
  call void @llvm.lifetime.start.p0(i64 8, ptr %6) #9
  %14 = load ptr, ptr %4, align 8, !tbaa !13
  %15 = getelementptr inbounds nuw %struct.AVFormatContext, ptr %14, i32 0, i32 3
  %16 = load ptr, ptr %15, align 8, !tbaa !31
  store ptr %16, ptr %6, align 8, !tbaa !32
  call void @llvm.lifetime.start.p0(i64 8, ptr %7) #9
  %17 = load ptr, ptr %4, align 8, !tbaa !13
  %18 = getelementptr inbounds nuw %struct.AVFormatContext, ptr %17, i32 0, i32 4
  %19 = load ptr, ptr %18, align 8, !tbaa !15
  store ptr %19, ptr %7, align 8, !tbaa !30
  call void @llvm.lifetime.start.p0(i64 8, ptr %8) #9
  call void @llvm.lifetime.start.p0(i64 8, ptr %9) #9
  call void @llvm.lifetime.start.p0(i64 8, ptr %10) #9
  call void @llvm.lifetime.start.p0(i64 4, ptr %11) #9
  %20 = load ptr, ptr %6, align 8, !tbaa !32
  %21 = getelementptr inbounds nuw %struct.RPLContext, ptr %20, i32 0, i32 2
  %22 = load i32, ptr %21, align 4, !tbaa !70
  %23 = load ptr, ptr %4, align 8, !tbaa !13
  %24 = getelementptr inbounds nuw %struct.AVFormatContext, ptr %23, i32 0, i32 6
  %25 = load i32, ptr %24, align 4, !tbaa !62
  %26 = icmp eq i32 %22, %25
  br i1 %26, label %27, label %34

27:                                               ; preds = %2
  %28 = load ptr, ptr %6, align 8, !tbaa !32
  %29 = getelementptr inbounds nuw %struct.RPLContext, ptr %28, i32 0, i32 1
  %30 = load i32, ptr %29, align 4, !tbaa !71
  %31 = add i32 %30, 1
  store i32 %31, ptr %29, align 4, !tbaa !71
  %32 = load ptr, ptr %6, align 8, !tbaa !32
  %33 = getelementptr inbounds nuw %struct.RPLContext, ptr %32, i32 0, i32 2
  store i32 0, ptr %33, align 4, !tbaa !70
  br label %34

34:                                               ; preds = %27, %2
  %35 = load ptr, ptr %4, align 8, !tbaa !13
  %36 = getelementptr inbounds nuw %struct.AVFormatContext, ptr %35, i32 0, i32 7
  %37 = load ptr, ptr %36, align 8, !tbaa !72
  %38 = load ptr, ptr %6, align 8, !tbaa !32
  %39 = getelementptr inbounds nuw %struct.RPLContext, ptr %38, i32 0, i32 2
  %40 = load i32, ptr %39, align 4, !tbaa !70
  %41 = zext i32 %40 to i64
  %42 = getelementptr inbounds nuw ptr, ptr %37, i64 %41
  %43 = load ptr, ptr %42, align 8, !tbaa !34
  store ptr %43, ptr %8, align 8, !tbaa !34
  %44 = load ptr, ptr %8, align 8, !tbaa !34
  %45 = call ptr @ffstream(ptr noundef %44)
  store ptr %45, ptr %9, align 8, !tbaa !73
  %46 = load ptr, ptr %6, align 8, !tbaa !32
  %47 = getelementptr inbounds nuw %struct.RPLContext, ptr %46, i32 0, i32 1
  %48 = load i32, ptr %47, align 4, !tbaa !71
  %49 = load ptr, ptr %9, align 8, !tbaa !73
  %50 = getelementptr inbounds nuw %struct.FFStream, ptr %49, i32 0, i32 13
  %51 = load i32, ptr %50, align 8, !tbaa !75
  %52 = icmp uge i32 %48, %51
  br i1 %52, label %53, label %54

53:                                               ; preds = %34
  store i32 -541478725, ptr %3, align 4
  store i32 1, ptr %12, align 4
  br label %232

54:                                               ; preds = %34
  %55 = load ptr, ptr %9, align 8, !tbaa !73
  %56 = getelementptr inbounds nuw %struct.FFStream, ptr %55, i32 0, i32 12
  %57 = load ptr, ptr %56, align 8, !tbaa !86
  %58 = load ptr, ptr %6, align 8, !tbaa !32
  %59 = getelementptr inbounds nuw %struct.RPLContext, ptr %58, i32 0, i32 1
  %60 = load i32, ptr %59, align 4, !tbaa !71
  %61 = zext i32 %60 to i64
  %62 = getelementptr inbounds nuw %struct.AVIndexEntry, ptr %57, i64 %61
  store ptr %62, ptr %10, align 8, !tbaa !87
  %63 = load ptr, ptr %6, align 8, !tbaa !32
  %64 = getelementptr inbounds nuw %struct.RPLContext, ptr %63, i32 0, i32 3
  %65 = load i32, ptr %64, align 4, !tbaa !88
  %66 = icmp eq i32 %65, 0
  br i1 %66, label %67, label %76

67:                                               ; preds = %54
  %68 = load ptr, ptr %7, align 8, !tbaa !30
  %69 = load ptr, ptr %10, align 8, !tbaa !87
  %70 = getelementptr inbounds nuw %struct.AVIndexEntry, ptr %69, i32 0, i32 0
  %71 = load i64, ptr %70, align 8, !tbaa !89
  %72 = call i64 @avio_seek(ptr noundef %68, i64 noundef %71, i32 noundef 0)
  %73 = icmp slt i64 %72, 0
  br i1 %73, label %74, label %75

74:                                               ; preds = %67
  store i32 -5, ptr %3, align 4
  store i32 1, ptr %12, align 4
  br label %232

75:                                               ; preds = %67
  br label %76

76:                                               ; preds = %75, %54
  %77 = load ptr, ptr %8, align 8, !tbaa !34
  %78 = getelementptr inbounds nuw %struct.AVStream, ptr %77, i32 0, i32 3
  %79 = load ptr, ptr %78, align 8, !tbaa !37
  %80 = getelementptr inbounds nuw %struct.AVCodecParameters, ptr %79, i32 0, i32 0
  %81 = load i32, ptr %80, align 8, !tbaa !44
  %82 = icmp eq i32 %81, 0
  br i1 %82, label %83, label %160

83:                                               ; preds = %76
  %84 = load ptr, ptr %8, align 8, !tbaa !34
  %85 = getelementptr inbounds nuw %struct.AVStream, ptr %84, i32 0, i32 3
  %86 = load ptr, ptr %85, align 8, !tbaa !37
  %87 = getelementptr inbounds nuw %struct.AVCodecParameters, ptr %86, i32 0, i32 2
  %88 = load i32, ptr %87, align 8, !tbaa !47
  %89 = icmp eq i32 %88, 124
  br i1 %89, label %90, label %160

90:                                               ; preds = %83
  call void @llvm.lifetime.start.p0(i64 4, ptr %13) #9
  %91 = load ptr, ptr %7, align 8, !tbaa !30
  %92 = call i64 @avio_skip(ptr noundef %91, i64 noundef 4)
  %93 = load ptr, ptr %7, align 8, !tbaa !30
  %94 = call i32 @avio_rl32(ptr noundef %93)
  store i32 %94, ptr %13, align 4, !tbaa !36
  %95 = load ptr, ptr %7, align 8, !tbaa !30
  %96 = call i32 @avio_feof(ptr noundef %95)
  %97 = icmp ne i32 %96, 0
  br i1 %97, label %105, label %98

98:                                               ; preds = %90
  %99 = load ptr, ptr %7, align 8, !tbaa !30
  %100 = call i64 @avio_seek(ptr noundef %99, i64 noundef -8, i32 noundef 1)
  %101 = icmp slt i64 %100, 0
  br i1 %101, label %105, label %102

102:                                              ; preds = %98
  %103 = load i32, ptr %13, align 4, !tbaa !36
  %104 = icmp ne i32 %103, 0
  br i1 %104, label %106, label %105

105:                                              ; preds = %102, %98, %90
  store i32 -5, ptr %3, align 4
  store i32 1, ptr %12, align 4
  br label %157

106:                                              ; preds = %102
  %107 = load ptr, ptr %7, align 8, !tbaa !30
  %108 = load ptr, ptr %5, align 8, !tbaa !68
  %109 = load i32, ptr %13, align 4, !tbaa !36
  %110 = call i32 @av_get_packet(ptr noundef %107, ptr noundef %108, i32 noundef %109)
  store i32 %110, ptr %11, align 4, !tbaa !36
  %111 = load i32, ptr %11, align 4, !tbaa !36
  %112 = icmp slt i32 %111, 0
  br i1 %112, label %113, label %115

113:                                              ; preds = %106
  %114 = load i32, ptr %11, align 4, !tbaa !36
  store i32 %114, ptr %3, align 4
  store i32 1, ptr %12, align 4
  br label %157

115:                                              ; preds = %106
  %116 = load i32, ptr %11, align 4, !tbaa !36
  %117 = load i32, ptr %13, align 4, !tbaa !36
  %118 = icmp ne i32 %116, %117
  br i1 %118, label %119, label %120

119:                                              ; preds = %115
  store i32 -5, ptr %3, align 4
  store i32 1, ptr %12, align 4
  br label %157

120:                                              ; preds = %115
  %121 = load ptr, ptr %5, align 8, !tbaa !68
  %122 = getelementptr inbounds nuw %struct.AVPacket, ptr %121, i32 0, i32 9
  store i64 1, ptr %122, align 8, !tbaa !91
  %123 = load ptr, ptr %10, align 8, !tbaa !87
  %124 = getelementptr inbounds nuw %struct.AVIndexEntry, ptr %123, i32 0, i32 1
  %125 = load i64, ptr %124, align 8, !tbaa !92
  %126 = load ptr, ptr %6, align 8, !tbaa !32
  %127 = getelementptr inbounds nuw %struct.RPLContext, ptr %126, i32 0, i32 3
  %128 = load i32, ptr %127, align 4, !tbaa !88
  %129 = zext i32 %128 to i64
  %130 = add nsw i64 %125, %129
  %131 = load ptr, ptr %5, align 8, !tbaa !68
  %132 = getelementptr inbounds nuw %struct.AVPacket, ptr %131, i32 0, i32 1
  store i64 %130, ptr %132, align 8, !tbaa !93
  %133 = load ptr, ptr %6, align 8, !tbaa !32
  %134 = getelementptr inbounds nuw %struct.RPLContext, ptr %133, i32 0, i32 2
  %135 = load i32, ptr %134, align 4, !tbaa !70
  %136 = load ptr, ptr %5, align 8, !tbaa !68
  %137 = getelementptr inbounds nuw %struct.AVPacket, ptr %136, i32 0, i32 5
  store i32 %135, ptr %137, align 4, !tbaa !94
  %138 = load ptr, ptr %6, align 8, !tbaa !32
  %139 = getelementptr inbounds nuw %struct.RPLContext, ptr %138, i32 0, i32 3
  %140 = load i32, ptr %139, align 4, !tbaa !88
  %141 = add i32 %140, 1
  store i32 %141, ptr %139, align 4, !tbaa !88
  %142 = load ptr, ptr %6, align 8, !tbaa !32
  %143 = getelementptr inbounds nuw %struct.RPLContext, ptr %142, i32 0, i32 3
  %144 = load i32, ptr %143, align 4, !tbaa !88
  %145 = load ptr, ptr %6, align 8, !tbaa !32
  %146 = getelementptr inbounds nuw %struct.RPLContext, ptr %145, i32 0, i32 0
  %147 = load i32, ptr %146, align 4, !tbaa !63
  %148 = icmp eq i32 %144, %147
  br i1 %148, label %149, label %156

149:                                              ; preds = %120
  %150 = load ptr, ptr %6, align 8, !tbaa !32
  %151 = getelementptr inbounds nuw %struct.RPLContext, ptr %150, i32 0, i32 3
  store i32 0, ptr %151, align 4, !tbaa !88
  %152 = load ptr, ptr %6, align 8, !tbaa !32
  %153 = getelementptr inbounds nuw %struct.RPLContext, ptr %152, i32 0, i32 2
  %154 = load i32, ptr %153, align 4, !tbaa !70
  %155 = add i32 %154, 1
  store i32 %155, ptr %153, align 4, !tbaa !70
  br label %156

156:                                              ; preds = %149, %120
  store i32 0, ptr %12, align 4
  br label %157

157:                                              ; preds = %156, %119, %113, %105
  call void @llvm.lifetime.end.p0(i64 4, ptr %13) #9
  %158 = load i32, ptr %12, align 4
  switch i32 %158, label %232 [
    i32 0, label %159
  ]

159:                                              ; preds = %157
  br label %215

160:                                              ; preds = %83, %76
  %161 = load ptr, ptr %7, align 8, !tbaa !30
  %162 = load ptr, ptr %5, align 8, !tbaa !68
  %163 = load ptr, ptr %10, align 8, !tbaa !87
  %164 = getelementptr inbounds nuw %struct.AVIndexEntry, ptr %163, i32 0, i32 2
  %165 = load i32, ptr %164, align 8
  %166 = ashr i32 %165, 2
  %167 = call i32 @av_get_packet(ptr noundef %161, ptr noundef %162, i32 noundef %166)
  store i32 %167, ptr %11, align 4, !tbaa !36
  %168 = load i32, ptr %11, align 4, !tbaa !36
  %169 = icmp slt i32 %168, 0
  br i1 %169, label %170, label %172

170:                                              ; preds = %160
  %171 = load i32, ptr %11, align 4, !tbaa !36
  store i32 %171, ptr %3, align 4
  store i32 1, ptr %12, align 4
  br label %232

172:                                              ; preds = %160
  %173 = load i32, ptr %11, align 4, !tbaa !36
  %174 = load ptr, ptr %10, align 8, !tbaa !87
  %175 = getelementptr inbounds nuw %struct.AVIndexEntry, ptr %174, i32 0, i32 2
  %176 = load i32, ptr %175, align 8
  %177 = ashr i32 %176, 2
  %178 = icmp ne i32 %173, %177
  br i1 %178, label %179, label %180

179:                                              ; preds = %172
  store i32 -5, ptr %3, align 4
  store i32 1, ptr %12, align 4
  br label %232

180:                                              ; preds = %172
  %181 = load ptr, ptr %8, align 8, !tbaa !34
  %182 = getelementptr inbounds nuw %struct.AVStream, ptr %181, i32 0, i32 3
  %183 = load ptr, ptr %182, align 8, !tbaa !37
  %184 = getelementptr inbounds nuw %struct.AVCodecParameters, ptr %183, i32 0, i32 0
  %185 = load i32, ptr %184, align 8, !tbaa !44
  %186 = icmp eq i32 %185, 0
  br i1 %186, label %187, label %194

187:                                              ; preds = %180
  %188 = load ptr, ptr %6, align 8, !tbaa !32
  %189 = getelementptr inbounds nuw %struct.RPLContext, ptr %188, i32 0, i32 0
  %190 = load i32, ptr %189, align 4, !tbaa !63
  %191 = sext i32 %190 to i64
  %192 = load ptr, ptr %5, align 8, !tbaa !68
  %193 = getelementptr inbounds nuw %struct.AVPacket, ptr %192, i32 0, i32 9
  store i64 %191, ptr %193, align 8, !tbaa !91
  br label %200

194:                                              ; preds = %180
  %195 = load i32, ptr %11, align 4, !tbaa !36
  %196 = mul nsw i32 %195, 8
  %197 = sext i32 %196 to i64
  %198 = load ptr, ptr %5, align 8, !tbaa !68
  %199 = getelementptr inbounds nuw %struct.AVPacket, ptr %198, i32 0, i32 9
  store i64 %197, ptr %199, align 8, !tbaa !91
  br label %200

200:                                              ; preds = %194, %187
  %201 = load ptr, ptr %10, align 8, !tbaa !87
  %202 = getelementptr inbounds nuw %struct.AVIndexEntry, ptr %201, i32 0, i32 1
  %203 = load i64, ptr %202, align 8, !tbaa !92
  %204 = load ptr, ptr %5, align 8, !tbaa !68
  %205 = getelementptr inbounds nuw %struct.AVPacket, ptr %204, i32 0, i32 1
  store i64 %203, ptr %205, align 8, !tbaa !93
  %206 = load ptr, ptr %6, align 8, !tbaa !32
  %207 = getelementptr inbounds nuw %struct.RPLContext, ptr %206, i32 0, i32 2
  %208 = load i32, ptr %207, align 4, !tbaa !70
  %209 = load ptr, ptr %5, align 8, !tbaa !68
  %210 = getelementptr inbounds nuw %struct.AVPacket, ptr %209, i32 0, i32 5
  store i32 %208, ptr %210, align 4, !tbaa !94
  %211 = load ptr, ptr %6, align 8, !tbaa !32
  %212 = getelementptr inbounds nuw %struct.RPLContext, ptr %211, i32 0, i32 2
  %213 = load i32, ptr %212, align 4, !tbaa !70
  %214 = add i32 %213, 1
  store i32 %214, ptr %212, align 4, !tbaa !70
  br label %215

215:                                              ; preds = %200, %159
  %216 = load ptr, ptr %6, align 8, !tbaa !32
  %217 = getelementptr inbounds nuw %struct.RPLContext, ptr %216, i32 0, i32 1
  %218 = load i32, ptr %217, align 4, !tbaa !71
  %219 = icmp eq i32 %218, 0
  br i1 %219, label %220, label %230

220:                                              ; preds = %215
  %221 = load ptr, ptr %6, align 8, !tbaa !32
  %222 = getelementptr inbounds nuw %struct.RPLContext, ptr %221, i32 0, i32 3
  %223 = load i32, ptr %222, align 4, !tbaa !88
  %224 = icmp eq i32 %223, 0
  br i1 %224, label %225, label %230

225:                                              ; preds = %220
  %226 = load ptr, ptr %5, align 8, !tbaa !68
  %227 = getelementptr inbounds nuw %struct.AVPacket, ptr %226, i32 0, i32 6
  %228 = load i32, ptr %227, align 8, !tbaa !95
  %229 = or i32 %228, 1
  store i32 %229, ptr %227, align 8, !tbaa !95
  br label %230

230:                                              ; preds = %225, %220, %215
  %231 = load i32, ptr %11, align 4, !tbaa !36
  store i32 %231, ptr %3, align 4
  store i32 1, ptr %12, align 4
  br label %232

232:                                              ; preds = %230, %179, %170, %157, %74, %53
  call void @llvm.lifetime.end.p0(i64 4, ptr %11) #9
  call void @llvm.lifetime.end.p0(i64 8, ptr %10) #9
  call void @llvm.lifetime.end.p0(i64 8, ptr %9) #9
  call void @llvm.lifetime.end.p0(i64 8, ptr %8) #9
  call void @llvm.lifetime.end.p0(i64 8, ptr %7) #9
  call void @llvm.lifetime.end.p0(i64 8, ptr %6) #9
  %233 = load i32, ptr %3, align 4
  ret i32 %233
}