; Function Attrs: nounwind uwtable
define internal i32 @rpl_read_packet(ptr noundef readonly captures(none) %0, ptr noundef %1) #1 {
  %3 = getelementptr inbounds nuw i8, ptr %0, i64 24
  %4 = load ptr, ptr %3, align 8, !tbaa !26
  %5 = getelementptr inbounds nuw i8, ptr %0, i64 32
  %6 = load ptr, ptr %5, align 8, !tbaa !11
  %7 = getelementptr inbounds nuw i8, ptr %4, i64 8
  %8 = load i32, ptr %7, align 4, !tbaa !58
  %9 = getelementptr inbounds nuw i8, ptr %0, i64 44
  %10 = load i32, ptr %9, align 4, !tbaa !52
  %11 = icmp eq i32 %8, %10
  %12 = getelementptr inbounds nuw i8, ptr %4, i64 4
  %13 = load i32, ptr %12, align 4, !tbaa !59
  br i1 %11, label %15, label %._crit_edge

._crit_edge:                                      ; preds = %2
  %14 = zext i32 %8 to i64
  br label %17

15:                                               ; preds = %2
  %16 = add i32 %13, 1
  store i32 %16, ptr %12, align 4, !tbaa !59
  store i32 0, ptr %7, align 4, !tbaa !58
  br label %17

17:                                               ; preds = %._crit_edge, %15
  %18 = phi i32 [ %16, %15 ], [ %13, %._crit_edge ]
  %19 = phi i64 [ 0, %15 ], [ %14, %._crit_edge ]
  %20 = getelementptr inbounds nuw i8, ptr %0, i64 48
  %21 = load ptr, ptr %20, align 8, !tbaa !60
  %22 = getelementptr inbounds nuw ptr, ptr %21, i64 %19
  %23 = load ptr, ptr %22, align 8, !tbaa !61
  %24 = getelementptr inbounds nuw i8, ptr %4, i64 4
  %25 = getelementptr inbounds nuw i8, ptr %23, i64 328
  %26 = load i32, ptr %25, align 8, !tbaa !63
  %.not = icmp ult i32 %18, %26
  br i1 %.not, label %27, label %.thread

27:                                               ; preds = %17
  %28 = getelementptr inbounds nuw i8, ptr %23, i64 320
  %29 = load ptr, ptr %28, align 8, !tbaa !75
  %30 = zext i32 %18 to i64
  %31 = getelementptr inbounds nuw %struct.AVIndexEntry, ptr %29, i64 %30
  %32 = getelementptr inbounds nuw i8, ptr %4, i64 12
  %33 = load i32, ptr %32, align 4, !tbaa !76
  %34 = icmp eq i32 %33, 0
  br i1 %34, label %35, label %39

35:                                               ; preds = %27
  %36 = load i64, ptr %31, align 8, !tbaa !77
  %37 = tail call i64 @avio_seek(ptr noundef %6, i64 noundef %36, i32 noundef 0) #7
  %38 = icmp slt i64 %37, 0
  br i1 %38, label %.thread, label %39

39:                                               ; preds = %35, %27
  %40 = getelementptr inbounds nuw i8, ptr %23, i64 16
  %41 = load ptr, ptr %40, align 8, !tbaa !31
  %42 = load i32, ptr %41, align 8, !tbaa !38
  %43 = icmp eq i32 %42, 0
  br i1 %43, label %44, label %74

44:                                               ; preds = %39
  %45 = getelementptr inbounds nuw i8, ptr %41, i64 8
  %46 = load i32, ptr %45, align 8, !tbaa !41
  %47 = icmp eq i32 %46, 124
  br i1 %47, label %48, label %74

48:                                               ; preds = %44
  %49 = tail call i64 @avio_skip(ptr noundef %6, i64 noundef 4) #7
  %50 = tail call i32 @avio_rl32(ptr noundef %6) #7
  %51 = tail call i32 @avio_feof(ptr noundef %6) #7
  %.not74 = icmp eq i32 %51, 0
  br i1 %.not74, label %52, label %.thread

52:                                               ; preds = %48
  %53 = tail call i64 @avio_seek(ptr noundef %6, i64 noundef -8, i32 noundef 1) #7
  %54 = icmp sgt i64 %53, -1
  %55 = icmp ne i32 %50, 0
  %or.cond = select i1 %54, i1 %55, i1 false
  br i1 %or.cond, label %56, label %.thread

56:                                               ; preds = %52
  %57 = tail call i32 @av_get_packet(ptr noundef %6, ptr noundef %1, i32 noundef %50) #7
  %58 = icmp slt i32 %57, 0
  br i1 %58, label %.thread, label %59

59:                                               ; preds = %56
  %.not75 = icmp eq i32 %57, %50
  br i1 %.not75, label %60, label %.thread

60:                                               ; preds = %59
  %61 = getelementptr inbounds nuw i8, ptr %1, i64 64
  store i64 1, ptr %61, align 8, !tbaa !79
  %62 = getelementptr inbounds nuw i8, ptr %31, i64 8
  %63 = load i64, ptr %62, align 8, !tbaa !80
  %64 = load i32, ptr %32, align 4, !tbaa !76
  %65 = zext i32 %64 to i64
  %66 = add nsw i64 %63, %65
  %67 = getelementptr inbounds nuw i8, ptr %1, i64 8
  store i64 %66, ptr %67, align 8, !tbaa !81
  %68 = load i32, ptr %7, align 4, !tbaa !58
  %69 = getelementptr inbounds nuw i8, ptr %1, i64 36
  store i32 %68, ptr %69, align 4, !tbaa !82
  %70 = add i32 %64, 1
  store i32 %70, ptr %32, align 4, !tbaa !76
  %71 = load i32, ptr %4, align 4, !tbaa !53
  %72 = icmp eq i32 %70, %71
  br i1 %72, label %73, label %101

73:                                               ; preds = %60
  store i32 0, ptr %32, align 4, !tbaa !76
  br label %.sink.split

74:                                               ; preds = %44, %39
  %75 = getelementptr inbounds nuw i8, ptr %31, i64 16
  %76 = load i32, ptr %75, align 8
  %77 = ashr i32 %76, 2
  %78 = tail call i32 @av_get_packet(ptr noundef %6, ptr noundef %1, i32 noundef %77) #7
  %79 = icmp slt i32 %78, 0
  br i1 %79, label %.thread, label %80

80:                                               ; preds = %74
  %81 = load i32, ptr %75, align 8
  %82 = ashr i32 %81, 2
  %.not73 = icmp eq i32 %78, %82
  br i1 %.not73, label %83, label %.thread

83:                                               ; preds = %80
  %84 = load ptr, ptr %40, align 8, !tbaa !31
  %85 = load i32, ptr %84, align 8, !tbaa !38
  %86 = icmp eq i32 %85, 0
  br i1 %86, label %87, label %90

87:                                               ; preds = %83
  %88 = load i32, ptr %4, align 4, !tbaa !53
  %89 = sext i32 %88 to i64
  br label %93

90:                                               ; preds = %83
  %91 = shl nuw nsw i32 %78, 3
  %92 = zext nneg i32 %91 to i64
  br label %93

93:                                               ; preds = %90, %87
  %.sink = phi i64 [ %89, %87 ], [ %92, %90 ]
  %94 = getelementptr inbounds nuw i8, ptr %1, i64 64
  store i64 %.sink, ptr %94, align 8, !tbaa !79
  %95 = getelementptr inbounds nuw i8, ptr %31, i64 8
  %96 = load i64, ptr %95, align 8, !tbaa !80
  %97 = getelementptr inbounds nuw i8, ptr %1, i64 8
  store i64 %96, ptr %97, align 8, !tbaa !81
  %98 = load i32, ptr %7, align 4, !tbaa !58
  %99 = getelementptr inbounds nuw i8, ptr %1, i64 36
  store i32 %98, ptr %99, align 4, !tbaa !82
  br label %.sink.split

.sink.split:                                      ; preds = %93, %73
  %.sink80 = phi i32 [ %68, %73 ], [ %98, %93 ]
  %.166.ph = phi i32 [ %50, %73 ], [ %78, %93 ]
  %100 = add i32 %.sink80, 1
  store i32 %100, ptr %7, align 4, !tbaa !58
  br label %101

101:                                              ; preds = %.sink.split, %60
  %.166 = phi i32 [ %50, %60 ], [ %.166.ph, %.sink.split ]
  %102 = load i32, ptr %24, align 4, !tbaa !59
  %103 = icmp eq i32 %102, 0
  br i1 %103, label %104, label %.thread

104:                                              ; preds = %101
  %105 = load i32, ptr %32, align 4, !tbaa !76
  %106 = icmp eq i32 %105, 0
  br i1 %106, label %107, label %.thread

107:                                              ; preds = %104
  %108 = getelementptr inbounds nuw i8, ptr %1, i64 40
  %109 = load i32, ptr %108, align 8, !tbaa !83
  %110 = or i32 %109, 1
  store i32 %110, ptr %108, align 8, !tbaa !83
  br label %.thread

.thread:                                          ; preds = %59, %56, %48, %52, %101, %104, %107, %80, %74, %35, %17
  %.0 = phi i32 [ -541478725, %17 ], [ -5, %35 ], [ %78, %74 ], [ -5, %80 ], [ %.166, %107 ], [ %.166, %104 ], [ %.166, %101 ], [ -5, %59 ], [ %57, %56 ], [ -5, %48 ], [ -5, %52 ]
  ret i32 %.0
}